target datalayout = "e-m:e-p270:32:32-p271:32:32-p272:64:64-i64:64-i128:128-f80:128-n8:16:32:64-S128"
target triple = "x86_64-pc-linux-gnu"

%struct.asn1_string_st = type { i32, i32, ptr, i64 }
%struct.v3_ext_method = type { i32, i32, ptr, ptr, ptr, ptr, ptr, ptr, ptr, ptr, ptr, ptr, ptr, ptr }

@.str = private unnamed_addr constant [33 x i8] c"../openssl/crypto/x509/v3_conf.c\00", align 1
@__func__.do_ext_i2d = private unnamed_addr constant [11 x i8] c"do_ext_i2d\00", align 1

; Function Attrs: nounwind uwtable
define internal ptr @do_ext_i2d(ptr noundef %0, i32 noundef %1, i32 noundef %2, ptr noundef %3) #0 {
  %5 = alloca ptr, align 8
  %6 = alloca ptr, align 8
  %7 = alloca i32, align 4
  %8 = alloca i32, align 4
  %9 = alloca ptr, align 8
  %10 = alloca ptr, align 8
  %11 = alloca i32, align 4
  %12 = alloca ptr, align 8
  %13 = alloca ptr, align 8
  %14 = alloca ptr, align 8
  %15 = alloca i32, align 4
  store ptr %0, ptr %6, align 8, !tbaa !31
  store i32 %1, ptr %7, align 4, !tbaa !12
  store i32 %2, ptr %8, align 4, !tbaa !12
  store ptr %3, ptr %9, align 8, !tbaa !37
  call void @llvm.lifetime.start.p0(i64 8, ptr %10) #5
  store ptr null, ptr %10, align 8, !tbaa !10
  call void @llvm.lifetime.start.p0(i64 4, ptr %11) #5
  call void @llvm.lifetime.start.p0(i64 8, ptr %12) #5
  store ptr null, ptr %12, align 8, !tbaa !26
  call void @llvm.lifetime.start.p0(i64 8, ptr %13) #5
  %16 = load ptr, ptr %6, align 8, !tbaa !31
  %17 = getelementptr inbounds nuw %struct.v3_ext_method, ptr %16, i32 0, i32 2
  %18 = load ptr, ptr %17, align 8, !tbaa !48
  %19 = icmp ne ptr %18, null
  br i1 %19, label %20, label %31

20:                                               ; preds = %4
  store ptr null, ptr %10, align 8, !tbaa !10
  %21 = load ptr, ptr %9, align 8, !tbaa !37
  %22 = load ptr, ptr %6, align 8, !tbaa !31
  %23 = getelementptr inbounds nuw %struct.v3_ext_method, ptr %22, i32 0, i32 2
  %24 = load ptr, ptr %23, align 8, !tbaa !48
  %25 = call ptr %24()
  %26 = call i32 @ASN1_item_i2d(ptr noundef %21, ptr noundef %10, ptr noundef %25)
  store i32 %26, ptr %11, align 4, !tbaa !12
  %27 = load i32, ptr %11, align 4, !tbaa !12
  %28 = icmp slt i32 %27, 0
  br i1 %28, label %29, label %30

29:                                               ; preds = %20
  call void @ERR_new()
  call void @ERR_set_debug(ptr noundef @.str, i32 noundef 152, ptr noundef @__func__.do_ext_i2d)
  call void (i32, i32, ptr, ...) @ERR_set_error(i32 noundef 34, i32 noundef 524301, ptr noundef null)
  br label %77

30:                                               ; preds = %20
  br label %56

31:                                               ; preds = %4
  call void @llvm.lifetime.start.p0(i64 8, ptr %14) #5
  %32 = load ptr, ptr %6, align 8, !tbaa !31
  %33 = getelementptr inbounds nuw %struct.v3_ext_method, ptr %32, i32 0, i32 6
  %34 = load ptr, ptr %33, align 8, !tbaa !50
  %35 = load ptr, ptr %9, align 8, !tbaa !37
  %36 = call i32 %34(ptr noundef %35, ptr noundef null)
  store i32 %36, ptr %11, align 4, !tbaa !12
  %37 = load i32, ptr %11, align 4, !tbaa !12
  %38 = icmp sle i32 %37, 0
  br i1 %38, label %39, label %40

39:                                               ; preds = %31
  call void @ERR_new()
  call void @ERR_set_debug(ptr noundef @.str, i32 noundef 160, ptr noundef @__func__.do_ext_i2d)
  call void (i32, i32, ptr, ...) @ERR_set_error(i32 noundef 34, i32 noundef 524301, ptr noundef null)
  store i32 2, ptr %15, align 4
  br label %53

40:                                               ; preds = %31
  %41 = load i32, ptr %11, align 4, !tbaa !12
  %42 = sext i32 %41 to i64
  %43 = call noalias ptr @CRYPTO_malloc(i64 noundef %42, ptr noundef @.str, i32 noundef 163)
  store ptr %43, ptr %10, align 8, !tbaa !10
  %44 = icmp eq ptr %43, null
  br i1 %44, label %45, label %46

45:                                               ; preds = %40
  store i32 2, ptr %15, align 4
  br label %53

46:                                               ; preds = %40
  %47 = load ptr, ptr %10, align 8, !tbaa !10
  store ptr %47, ptr %14, align 8, !tbaa !10
  %48 = load ptr, ptr %6, align 8, !tbaa !31
  %49 = getelementptr inbounds nuw %struct.v3_ext_method, ptr %48, i32 0, i32 6
  %50 = load ptr, ptr %49, align 8, !tbaa !50
  %51 = load ptr, ptr %9, align 8, !tbaa !37
  %52 = call i32 %50(ptr noundef %51, ptr noundef %14)
  store i32 0, ptr %15, align 4
  br label %53

53:                                               ; preds = %45, %39, %46
  call void @llvm.lifetime.end.p0(i64 8, ptr %14) #5
  %54 = load i32, ptr %15, align 4
  switch i32 %54, label %80 [
    i32 0, label %55
    i32 2, label %77
  ]

55:                                               ; preds = %53
  br label %56

56:                                               ; preds = %55, %30
  %57 = call ptr @ASN1_OCTET_STRING_new()
  store ptr %57, ptr %12, align 8, !tbaa !26
  %58 = icmp eq ptr %57, null
  br i1 %58, label %59, label %60

59:                                               ; preds = %56
  call void @ERR_new()
  call void @ERR_set_debug(ptr noundef @.str, i32 noundef 169, ptr noundef @__func__.do_ext_i2d)
  call void (i32, i32, ptr, ...) @ERR_set_error(i32 noundef 34, i32 noundef 524301, ptr noundef null)
  br label %77

60:                                               ; preds = %56
  %61 = load ptr, ptr %10, align 8, !tbaa !10
  %62 = load ptr, ptr %12, align 8, !tbaa !26
  %63 = getelementptr inbounds nuw %struct.asn1_string_st, ptr %62, i32 0, i32 2
  store ptr %61, ptr %63, align 8, !tbaa !28
  store ptr null, ptr %10, align 8, !tbaa !10
  %64 = load i32, ptr %11, align 4, !tbaa !12
  %65 = load ptr, ptr %12, align 8, !tbaa !26
  %66 = getelementptr inbounds nuw %struct.asn1_string_st, ptr %65, i32 0, i32 0
  store i32 %64, ptr %66, align 8, !tbaa !30
  %67 = load i32, ptr %7, align 4, !tbaa !12
  %68 = load i32, ptr %8, align 4, !tbaa !12
  %69 = load ptr, ptr %12, align 8, !tbaa !26
  %70 = call ptr @X509_EXTENSION_create_by_NID(ptr noundef null, i32 noundef %67, i32 noundef %68, ptr noundef %69)
  store ptr %70, ptr %13, align 8, !tbaa !14
  %71 = load ptr, ptr %13, align 8, !tbaa !14
  %72 = icmp ne ptr %71, null
  br i1 %72, label %74, label %73

73:                                               ; preds = %60
  call void @ERR_new()
  call void @ERR_set_debug(ptr noundef @.str, i32 noundef 178, ptr noundef @__func__.do_ext_i2d)
  call void (i32, i32, ptr, ...) @ERR_set_error(i32 noundef 34, i32 noundef 524322, ptr noundef null)
  br label %77

74:                                               ; preds = %60
  %75 = load ptr, ptr %12, align 8, !tbaa !26
  call void @ASN1_OCTET_STRING_free(ptr noundef %75)
  %76 = load ptr, ptr %13, align 8, !tbaa !14
  store ptr %76, ptr %5, align 8
  store i32 1, ptr %15, align 4
  br label %80

77:                                               ; preds = %53, %73, %59, %29
  %78 = load ptr, ptr %10, align 8, !tbaa !10
  call void @CRYPTO_free(ptr noundef %78, ptr noundef @.str, i32 noundef 186)
  %79 = load ptr, ptr %12, align 8, !tbaa !26
  call void @ASN1_OCTET_STRING_free(ptr noundef %79)
  store ptr null, ptr %5, align 8
  store i32 1, ptr %15, align 4
  br label %80

80:                                               ; preds = %77, %74, %53
  call void @llvm.lifetime.end.p0(i64 8, ptr %13) #5
  call void @llvm.lifetime.end.p0(i64 8, ptr %12) #5
  call void @llvm.lifetime.end.p0(i64 4, ptr %11) #5
  call void @llvm.lifetime.end.p0(i64 8, ptr %10) #5
  %81 = load ptr, ptr %5, align 8
  ret ptr %81
}