; Function Attrs: nounwind uwtable
define internal fastcc ptr @do_ext_i2d(ptr noundef nonnull readonly captures(none) %0, i32 noundef %1, i32 noundef %2, ptr noundef %3) unnamed_addr #0 {
  %5 = alloca ptr, align 8
  %6 = alloca ptr, align 8
  call void @llvm.lifetime.start.p0(i64 8, ptr nonnull %5) #6
  store ptr null, ptr %5, align 8, !tbaa !11
  %7 = getelementptr inbounds nuw i8, ptr %0, i64 8
  %8 = load ptr, ptr %7, align 8, !tbaa !30
  %.not = icmp eq ptr %8, null
  br i1 %.not, label %14, label %9

9:                                                ; preds = %4
  %10 = tail call ptr %8() #6
  %11 = call i32 @ASN1_item_i2d(ptr noundef %3, ptr noundef nonnull %5, ptr noundef %10) #6
  %12 = icmp slt i32 %11, 0
  br i1 %12, label %13, label %27

13:                                               ; preds = %9
  call void @ERR_new() #6
  call void @ERR_set_debug(ptr noundef nonnull @.str, i32 noundef 152, ptr noundef nonnull @__func__.do_ext_i2d) #6
  call void (i32, i32, ptr, ...) @ERR_set_error(i32 noundef 34, i32 noundef 524301, ptr noundef null) #6
  br label %36

14:                                               ; preds = %4
  call void @llvm.lifetime.start.p0(i64 8, ptr nonnull %6) #6
  %15 = getelementptr inbounds nuw i8, ptr %0, i64 40
  %16 = load ptr, ptr %15, align 8, !tbaa !32
  %17 = tail call i32 %16(ptr noundef %3, ptr noundef null) #6
  %18 = icmp slt i32 %17, 1
  br i1 %18, label %19, label %20

19:                                               ; preds = %14
  tail call void @ERR_new() #6
  tail call void @ERR_set_debug(ptr noundef nonnull @.str, i32 noundef 160, ptr noundef nonnull @__func__.do_ext_i2d) #6
  tail call void (i32, i32, ptr, ...) @ERR_set_error(i32 noundef 34, i32 noundef 524301, ptr noundef null) #6
  br label %.thread

20:                                               ; preds = %14
  %21 = zext nneg i32 %17 to i64
  %22 = tail call noalias ptr @CRYPTO_malloc(i64 noundef %21, ptr noundef nonnull @.str, i32 noundef 163) #6
  store ptr %22, ptr %5, align 8, !tbaa !11
  %23 = icmp eq ptr %22, null
  br i1 %23, label %.thread, label %24

.thread:                                          ; preds = %19, %20
  call void @llvm.lifetime.end.p0(i64 8, ptr nonnull %6) #6
  br label %36

24:                                               ; preds = %20
  store ptr %22, ptr %6, align 8, !tbaa !11
  %25 = load ptr, ptr %15, align 8, !tbaa !32
  %26 = call i32 %25(ptr noundef %3, ptr noundef nonnull %6) #6
  call void @llvm.lifetime.end.p0(i64 8, ptr nonnull %6) #6
  br label %27

27:                                               ; preds = %24, %9
  %.023 = phi i32 [ %11, %9 ], [ %17, %24 ]
  %28 = call ptr @ASN1_OCTET_STRING_new() #6
  %29 = icmp eq ptr %28, null
  br i1 %29, label %30, label %31

30:                                               ; preds = %27
  call void @ERR_new() #6
  call void @ERR_set_debug(ptr noundef nonnull @.str, i32 noundef 169, ptr noundef nonnull @__func__.do_ext_i2d) #6
  call void (i32, i32, ptr, ...) @ERR_set_error(i32 noundef 34, i32 noundef 524301, ptr noundef null) #6
  br label %36

31:                                               ; preds = %27
  %32 = load ptr, ptr %5, align 8, !tbaa !11
  %33 = getelementptr inbounds nuw i8, ptr %28, i64 8
  store ptr %32, ptr %33, align 8, !tbaa !14
  store ptr null, ptr %5, align 8, !tbaa !11
  store i32 %.023, ptr %28, align 8, !tbaa !17
  %34 = call ptr @X509_EXTENSION_create_by_NID(ptr noundef null, i32 noundef %1, i32 noundef %2, ptr noundef nonnull %28) #6
  %.not29 = icmp eq ptr %34, null
  br i1 %.not29, label %35, label %38

35:                                               ; preds = %31
  call void @ERR_new() #6
  call void @ERR_set_debug(ptr noundef nonnull @.str, i32 noundef 178, ptr noundef nonnull @__func__.do_ext_i2d) #6
  call void (i32, i32, ptr, ...) @ERR_set_error(i32 noundef 34, i32 noundef 524322, ptr noundef null) #6
  br label %36

36:                                               ; preds = %.thread, %35, %30, %13
  %.022 = phi ptr [ null, %13 ], [ null, %30 ], [ %28, %35 ], [ null, %.thread ]
  %37 = load ptr, ptr %5, align 8, !tbaa !11
  call void @CRYPTO_free(ptr noundef %37, ptr noundef nonnull @.str, i32 noundef 186) #6
  br label %38

38:                                               ; preds = %31, %36
  %.022.sink = phi ptr [ %.022, %36 ], [ %28, %31 ]
  %.021 = phi ptr [ null, %36 ], [ %34, %31 ]
  call void @ASN1_OCTET_STRING_free(ptr noundef %.022.sink) #6
  call void @llvm.lifetime.end.p0(i64 8, ptr nonnull %5) #6
  ret ptr %.021
}